target datalayout = "e-m:e-p270:32:32-p271:32:32-p272:64:64-i64:64-i128:128-f80:128-n8:16:32:64-S128"
target triple = "x86_64-pc-linux-gnu"

%struct._MRIStepInnerStepper = type { ptr, ptr, ptr, ptr, i32, i32, i32, double, double, ptr, ptr, i64, i64, i64, i64 }

@.str = private unnamed_addr constant [123 x i8] c"generated/home/dtcxzyw/WorkSpace/Projects/compilers/llvm-opt-benchmark/bench/sundials/sundials/src/arkode/arkode_mristep.c\00", align 1
@.str.96 = private unnamed_addr constant [29 x i8] c"Inner stepper memory is NULL\00", align 1
@__func__.MRIStepInnerStepper_GetForcingData = private unnamed_addr constant [35 x i8] c"MRIStepInnerStepper_GetForcingData\00", align 1

; Function Attrs: nounwind uwtable
define i32 @MRIStepInnerStepper_GetForcingData(ptr noundef %0, ptr noundef %1, ptr noundef %2, ptr noundef %3, ptr noundef %4) #0 {
  %6 = alloca i32, align 4
  %7 = alloca ptr, align 8
  %8 = alloca ptr, align 8
  %9 = alloca ptr, align 8
  %10 = alloca ptr, align 8
  %11 = alloca ptr, align 8
  store ptr %0, ptr %7, align 8, !tbaa !11
  store ptr %1, ptr %8, align 8, !tbaa !125
  store ptr %2, ptr %9, align 8, !tbaa !125
  store ptr %3, ptr %10, align 8, !tbaa !265
  store ptr %4, ptr %11, align 8, !tbaa !128
  %12 = load ptr, ptr %7, align 8, !tbaa !11
  %13 = icmp eq ptr %12, null
  br i1 %13, label %14, label %15

14:                                               ; preds = %5
  call void (ptr, i32, i32, ptr, ptr, ptr, ...) @arkProcessError(ptr noundef null, i32 noundef -22, i32 noundef 4527, ptr noundef @__func__.MRIStepInnerStepper_GetForcingData, ptr noundef @.str, ptr noundef @.str.96)
  store i32 -22, ptr %6, align 4
  br label %32

15:                                               ; preds = %5
  %16 = load ptr, ptr %7, align 8, !tbaa !11
  %17 = getelementptr inbounds nuw %struct._MRIStepInnerStepper, ptr %16, i32 0, i32 7
  %18 = load double, ptr %17, align 8, !tbaa !247
  %19 = load ptr, ptr %8, align 8, !tbaa !125
  store double %18, ptr %19, align 8, !tbaa !7
  %20 = load ptr, ptr %7, align 8, !tbaa !11
  %21 = getelementptr inbounds nuw %struct._MRIStepInnerStepper, ptr %20, i32 0, i32 8
  %22 = load double, ptr %21, align 8, !tbaa !248
  %23 = load ptr, ptr %9, align 8, !tbaa !125
  store double %22, ptr %23, align 8, !tbaa !7
  %24 = load ptr, ptr %7, align 8, !tbaa !11
  %25 = getelementptr inbounds nuw %struct._MRIStepInnerStepper, ptr %24, i32 0, i32 3
  %26 = load ptr, ptr %25, align 8, !tbaa !249
  %27 = load ptr, ptr %10, align 8, !tbaa !265
  store ptr %26, ptr %27, align 8, !tbaa !216
  %28 = load ptr, ptr %7, align 8, !tbaa !11
  %29 = getelementptr inbounds nuw %struct._MRIStepInnerStepper, ptr %28, i32 0, i32 4
  %30 = load i32, ptr %29, align 8, !tbaa !230
  %31 = load ptr, ptr %11, align 8, !tbaa !128
  store i32 %30, ptr %31, align 4, !tbaa !15
  store i32 0, ptr %6, align 4
  br label %32

32:                                               ; preds = %15, %14
  %33 = load i32, ptr %6, align 4
  ret i32 %33
}