; Function Attrs: nounwind uwtable
define range(i32 -22, 1) i32 @MRIStepInnerStepper_GetForcingData(ptr noundef readonly captures(address_is_null) %0, ptr noundef writeonly captures(none) %1, ptr noundef writeonly captures(none) %2, ptr noundef writeonly captures(none) %3, ptr noundef writeonly captures(none) %4) local_unnamed_addr #0 {
  %6 = icmp eq ptr %0, null
  br i1 %6, label %7, label %8

7:                                                ; preds = %5
  tail call void (ptr, i32, i32, ptr, ptr, ptr, ...) @arkProcessError(ptr noundef null, i32 noundef -22, i32 noundef 4527, ptr noundef nonnull @__func__.MRIStepInnerStepper_GetForcingData, ptr noundef nonnull @.str, ptr noundef nonnull @.str.96) #14
  br label %17

8:                                                ; preds = %5
  %9 = getelementptr inbounds nuw i8, ptr %0, i64 48
  %10 = load double, ptr %9, align 8, !tbaa !231
  store double %10, ptr %1, align 8, !tbaa !115
  %11 = getelementptr inbounds nuw i8, ptr %0, i64 56
  %12 = load double, ptr %11, align 8, !tbaa !232
  store double %12, ptr %2, align 8, !tbaa !115
  %13 = getelementptr inbounds nuw i8, ptr %0, i64 24
  %14 = load ptr, ptr %13, align 8, !tbaa !233
  store ptr %14, ptr %3, align 8, !tbaa !248
  %15 = getelementptr inbounds nuw i8, ptr %0, i64 32
  %16 = load i32, ptr %15, align 8, !tbaa !213
  store i32 %16, ptr %4, align 4, !tbaa !119
  br label %17

17:                                               ; preds = %8, %7
  %.0 = phi i32 [ -22, %7 ], [ 0, %8 ]
  ret i32 %.0
}